target datalayout = "e-m:e-p270:32:32-p271:32:32-p272:64:64-i64:64-i128:128-f80:128-n8:16:32:64-S128"
target triple = "x86_64-pc-linux-gnu"

%"class.icu_77::ReplaceableGlue" = type { %"class.icu_77::Replaceable", ptr, ptr }
%"class.icu_77::Replaceable" = type { %"class.icu_77::UObject" }
%"class.icu_77::UObject" = type { ptr }

@_ZN6icu_7715ReplaceableGlueC1EPPvPK21UReplaceableCallbacks = unnamed_addr alias void (ptr, ptr, ptr), ptr @_ZN6icu_7715ReplaceableGlueC2EPPvPK21UReplaceableCallbacks
@_ZN6icu_7715ReplaceableGlueD1Ev = unnamed_addr alias void (ptr), ptr @_ZN6icu_7715ReplaceableGlueD2Ev

; Function Attrs: inlinehint mustprogress nounwind uwtable
define internal noundef signext i8 @_ZL9U_FAILURE10UErrorCode(i32 noundef %0) #2 {
  %2 = alloca i32, align 4
  store i32 %0, ptr %2, align 4, !tbaa !40
  %3 = load i32, ptr %2, align 4, !tbaa !40
  %4 = icmp sgt i32 %3, 0
  %5 = zext i1 %4 to i8
  ret i8 %5
}

; Function Attrs: mustprogress uwtable
define void @utrans_transIncremental_77(ptr noundef %0, ptr noundef %1, ptr noundef %2, ptr noundef %3, ptr noundef %4) #1 personality ptr @__gxx_personality_v0 {
  %6 = alloca ptr, align 8
  %7 = alloca ptr, align 8
  %8 = alloca ptr, align 8
  %9 = alloca ptr, align 8
  %10 = alloca ptr, align 8
  %11 = alloca %"class.icu_77::ReplaceableGlue", align 8
  %12 = alloca ptr, align 8
  %13 = alloca i32, align 4
  store ptr %0, ptr %6, align 8, !tbaa !8
  store ptr %1, ptr %7, align 8, !tbaa !8
  store ptr %2, ptr %8, align 8, !tbaa !10
  store ptr %3, ptr %9, align 8, !tbaa !64
  store ptr %4, ptr %10, align 8, !tbaa !39
  %14 = load ptr, ptr %10, align 8, !tbaa !39
  %15 = icmp eq ptr %14, null
  br i1 %15, label %21, label %16

16:                                               ; preds = %5
  %17 = load ptr, ptr %10, align 8, !tbaa !39
  %18 = load i32, ptr %17, align 4, !tbaa !40
  %19 = call noundef signext i8 @_ZL9U_FAILURE10UErrorCode(i32 noundef %18)
  %20 = icmp ne i8 %19, 0
  br i1 %20, label %21, label %22

21:                                               ; preds = %16, %5
  br label %46

22:                                               ; preds = %16
  %23 = load ptr, ptr %6, align 8, !tbaa !8
  %24 = icmp eq ptr %23, null
  br i1 %24, label %34, label %25

25:                                               ; preds = %22
  %26 = load ptr, ptr %7, align 8, !tbaa !8
  %27 = icmp eq ptr %26, null
  br i1 %27, label %34, label %28

28:                                               ; preds = %25
  %29 = load ptr, ptr %8, align 8, !tbaa !10
  %30 = icmp eq ptr %29, null
  br i1 %30, label %34, label %31

31:                                               ; preds = %28
  %32 = load ptr, ptr %9, align 8, !tbaa !64
  %33 = icmp eq ptr %32, null
  br i1 %33, label %34, label %36

34:                                               ; preds = %31, %28, %25, %22
  %35 = load ptr, ptr %10, align 8, !tbaa !39
  store i32 1, ptr %35, align 4, !tbaa !40
  br label %46

36:                                               ; preds = %31
  call void @llvm.lifetime.start.p0(i64 24, ptr %11) #9
  %37 = load ptr, ptr %7, align 8, !tbaa !8
  %38 = load ptr, ptr %8, align 8, !tbaa !10
  call void @_ZN6icu_7715ReplaceableGlueC1EPPvPK21UReplaceableCallbacks(ptr noundef nonnull align 8 dereferenceable(24) %11, ptr noundef %37, ptr noundef %38)
  %39 = load ptr, ptr %6, align 8, !tbaa !8
  %40 = load ptr, ptr %9, align 8, !tbaa !64
  %41 = load ptr, ptr %10, align 8, !tbaa !39
  %42 = load ptr, ptr %39, align 8, !tbaa !12
  %43 = getelementptr inbounds ptr, ptr %42, i64 8
  %44 = load ptr, ptr %43, align 8
  invoke void %44(ptr noundef nonnull align 8 dereferenceable(84) %39, ptr noundef nonnull align 8 dereferenceable(8) %11, ptr noundef nonnull align 4 dereferenceable(16) %40, ptr noundef nonnull align 4 dereferenceable(4) %41)
          to label %45 unwind label %47

45:                                               ; preds = %36
  call void @_ZN6icu_7715ReplaceableGlueD1Ev(ptr noundef nonnull align 8 dereferenceable(24) %11) #9
  call void @llvm.lifetime.end.p0(i64 24, ptr %11) #9
  br label %46

46:                                               ; preds = %45, %34, %21
  ret void

47:                                               ; preds = %36
  %48 = landingpad { ptr, i32 }
          cleanup
  %49 = extractvalue { ptr, i32 } %48, 0
  store ptr %49, ptr %12, align 8
  %50 = extractvalue { ptr, i32 } %48, 1
  store i32 %50, ptr %13, align 4
  call void @_ZN6icu_7715ReplaceableGlueD1Ev(ptr noundef nonnull align 8 dereferenceable(24) %11) #9
  call void @llvm.lifetime.end.p0(i64 24, ptr %11) #9
  br label %51

51:                                               ; preds = %47
  %52 = load ptr, ptr %12, align 8
  %53 = load i32, ptr %13, align 4
  %54 = insertvalue { ptr, i32 } poison, ptr %52, 0
  %55 = insertvalue { ptr, i32 } %54, i32 %53, 1
  resume { ptr, i32 } %55
}