; Function Attrs: mustprogress uwtable
define void @utrans_transIncremental_77(ptr noundef %0, ptr noundef %1, ptr noundef %2, ptr noundef %3, ptr noundef %4) local_unnamed_addr #4 personality ptr @__gxx_personality_v0 {
  %6 = alloca %"class.icu_77::ReplaceableGlue", align 8
  %7 = icmp eq ptr %4, null
  br i1 %7, label %22, label %8

8:                                                ; preds = %5
  %9 = load i32, ptr %4, align 4, !tbaa !23
  %10 = icmp slt i32 %9, 1
  br i1 %10, label %11, label %22

11:                                               ; preds = %8
  %12 = icmp eq ptr %0, null
  %13 = icmp eq ptr %1, null
  %or.cond = or i1 %12, %13
  %14 = icmp eq ptr %2, null
  %or.cond3 = or i1 %or.cond, %14
  %15 = icmp eq ptr %3, null
  %or.cond5 = or i1 %or.cond3, %15
  br i1 %or.cond5, label %16, label %17

16:                                               ; preds = %11
  store i32 1, ptr %4, align 4, !tbaa !23
  br label %22

17:                                               ; preds = %11
  call void @llvm.lifetime.start.p0(i64 24, ptr nonnull %6) #10
  call void @_ZN6icu_7715ReplaceableGlueC1EPPvPK21UReplaceableCallbacks(ptr noundef nonnull align 8 dereferenceable(24) %6, ptr noundef nonnull %1, ptr noundef nonnull %2)
  %18 = load ptr, ptr %0, align 8, !tbaa !3
  %19 = getelementptr inbounds nuw i8, ptr %18, i64 64
  %20 = load ptr, ptr %19, align 8
  invoke void %20(ptr noundef nonnull align 8 dereferenceable(84) %0, ptr noundef nonnull align 8 dereferenceable(8) %6, ptr noundef nonnull align 4 dereferenceable(16) %3, ptr noundef nonnull align 4 dereferenceable(4) %4)
          to label %21 unwind label %23

21:                                               ; preds = %17
  call void @_ZN6icu_7715ReplaceableGlueD1Ev(ptr noundef nonnull align 8 dereferenceable(24) %6) #10
  call void @llvm.lifetime.end.p0(i64 24, ptr nonnull %6) #10
  br label %22

22:                                               ; preds = %5, %8, %21, %16
  ret void

23:                                               ; preds = %17
  %24 = landingpad { ptr, i32 }
          cleanup
  call void @_ZN6icu_7715ReplaceableGlueD1Ev(ptr noundef nonnull align 8 dereferenceable(24) %6) #10
  call void @llvm.lifetime.end.p0(i64 24, ptr nonnull %6) #10
  resume { ptr, i32 } %24
}